target datalayout = "e-m:e-p270:32:32-p271:32:32-p272:64:64-i64:64-i128:128-f80:128-n8:16:32:64-S128"
target triple = "x86_64-pc-linux-gnu"

%struct.lua_State = type { ptr, i8, i8, i8, i8, i16, %union.StkIdRel, ptr, ptr, %union.StkIdRel, %union.StkIdRel, ptr, %union.StkIdRel, ptr, ptr, ptr, %struct.CallInfo, ptr, i64, i32, i32, i32, i32, i32, %struct.anon.2 }
%union.StkIdRel = type { ptr }
%struct.CallInfo = type { %union.StkIdRel, %union.StkIdRel, ptr, ptr, %union.anon, %union.anon.1, i32 }
%union.anon = type { %struct.anon.0 }
%struct.anon.0 = type { ptr, i64, i64 }
%union.anon.1 = type { i32 }
%struct.anon.2 = type { i32, i32 }
%struct.TValue = type { %union.Value, i8 }
%union.Value = type { ptr }
%union.StackValue = type { %struct.TValue }

; Function Attrs: nounwind uwtable
define hidden void @luaT_tryconcatTM(ptr noundef %0) #0 {
  %2 = alloca ptr, align 8
  %3 = alloca ptr, align 8
  store ptr %0, ptr %2, align 8, !tbaa !4
  call void @llvm.lifetime.start.p0(i64 8, ptr %3) #6
  %4 = load ptr, ptr %2, align 8, !tbaa !4
  %5 = getelementptr inbounds nuw %struct.lua_State, ptr %4, i32 0, i32 6
  %6 = load ptr, ptr %5, align 8, !tbaa !36
  %7 = getelementptr inbounds %union.StackValue, ptr %6, i64 -2
  store ptr %7, ptr %3, align 8, !tbaa !43
  %8 = load ptr, ptr %2, align 8, !tbaa !4
  %9 = load ptr, ptr %3, align 8, !tbaa !43
  %10 = load ptr, ptr %3, align 8, !tbaa !43
  %11 = getelementptr inbounds %union.StackValue, ptr %10, i64 1
  %12 = load ptr, ptr %3, align 8, !tbaa !43
  %13 = call i32 @callbinTM(ptr noundef %8, ptr noundef %9, ptr noundef %11, ptr noundef %12, i32 noundef 22)
  %14 = icmp slt i32 %13, 0
  %15 = zext i1 %14 to i32
  %16 = icmp ne i32 %15, 0
  %17 = zext i1 %16 to i32
  %18 = sext i32 %17 to i64
  %19 = call i64 @llvm.expect.i64(i64 %18, i64 0)
  %20 = icmp ne i64 %19, 0
  br i1 %20, label %21, label %26

21:                                               ; preds = %1
  %22 = load ptr, ptr %2, align 8, !tbaa !4
  %23 = load ptr, ptr %3, align 8, !tbaa !43
  %24 = load ptr, ptr %3, align 8, !tbaa !43
  %25 = getelementptr inbounds %union.StackValue, ptr %24, i64 1
  call void @luaG_concaterror(ptr noundef %22, ptr noundef %23, ptr noundef %25) #7
  unreachable

26:                                               ; preds = %1
  call void @llvm.lifetime.end.p0(i64 8, ptr %3) #6
  ret void
}