; Function Attrs: nounwind uwtable
define hidden void @luaT_tryconcatTM(ptr noundef %0) local_unnamed_addr #0 {
  %2 = getelementptr inbounds nuw i8, ptr %0, i64 16
  %3 = load ptr, ptr %2, align 8, !tbaa !31
  %4 = getelementptr inbounds i8, ptr %3, i64 -32
  %5 = getelementptr inbounds i8, ptr %3, i64 -16
  %6 = tail call fastcc i32 @callbinTM(ptr noundef %0, ptr noundef nonnull %4, ptr noundef nonnull %5, ptr noundef nonnull %4, i32 noundef 22)
  %7 = icmp slt i32 %6, 0
  br i1 %7, label %8, label %9, !prof !41

8:                                                ; preds = %1
  tail call void @luaG_concaterror(ptr noundef nonnull %0, ptr noundef nonnull %4, ptr noundef nonnull %5) #6
  unreachable

9:                                                ; preds = %1
  ret void
}